target datalayout = "e-m:e-p270:32:32-p271:32:32-p272:64:64-i64:64-i128:128-f80:128-n8:16:32:64-S128"
target triple = "x86_64-pc-linux-gnu"

%struct.sharedObjectsStruct = type { ptr, ptr, ptr, ptr, ptr, ptr, ptr, ptr, [4 x ptr], [4 x ptr], [4 x ptr], [4 x ptr], ptr, ptr, ptr, ptr, ptr, ptr, ptr, ptr, ptr, ptr, ptr, ptr, ptr, ptr, ptr, ptr, ptr, ptr, ptr, ptr, ptr, ptr, ptr, ptr, ptr, ptr, ptr, ptr, ptr, ptr, ptr, ptr, ptr, ptr, ptr, ptr, ptr, ptr, ptr, ptr, ptr, ptr, ptr, ptr, ptr, ptr, ptr, ptr, ptr, ptr, ptr, ptr, ptr, ptr, ptr, ptr, ptr, ptr, ptr, ptr, ptr, ptr, ptr, ptr, ptr, ptr, ptr, ptr, ptr, ptr, ptr, ptr, ptr, ptr, ptr, ptr, [10 x ptr], [10000 x ptr], [32 x ptr], [32 x ptr], [32 x ptr], [32 x ptr], ptr, ptr }
%struct.redisServer = type { i32, i64, ptr, ptr, ptr, i32, i32, i32, i32, i32, ptr, ptr, ptr, ptr, ptr, i32, i32, i32, i32, i64, i32, i32, i32, i32, ptr, i32, i32, [41 x i8], i32, i64, i32, i32, i32, ptr, ptr, i32, i32, i64, ptr, ptr, ptr, ptr, [2 x i32], i32, i32, i32, i32, i32, i32, [16 x ptr], i32, ptr, ptr, i32, [8 x %struct.connListener], i32, %struct.connListener, ptr, ptr, ptr, ptr, ptr, ptr, ptr, ptr, ptr, ptr, i32, ptr, i32, ptr, [3 x %struct.pause_event], [256 x i8], ptr, i64, i32, i32, [128 x i32], i32, i32, i64, i32, i32, i32, i32, i32, i64, i64, i64, i64, i64, i64, i64, i64, i64, i64, double, i64, i64, i64, i64, i64, i64, i64, i64, i64, i64, i64, i64, i64, i64, i64, i64, i64, i64, i64, i64, i64, double, i64, i64, i64, i64, i64, ptr, i64, i64, i64, %struct.malloc_stats, i64, i64, i64, i64, i64, i64, i64, i64, i64, i64, i64, i64, double, [4 x i64], i64, i64, i64, i64, [128 x i64], [128 x i64], i64, i64, [7 x %struct.anon], i64, i64, i64, i64, i64, i64, [4 x %struct.durationStats], i32, i32, i32, i32, i32, i32, i32, i32, i32, i32, i32, i32, i64, i32, i32, i32, i32, i64, i64, i32, i32, i32, i32, i32, ptr, [3 x %struct.clientBufferLimitsConfig], i32, i32, i32, ptr, i32, i32, i32, i32, i32, i32, ptr, ptr, i32, i32, i64, i64, i64, i64, i64, i32, i32, ptr, i32, i32, i64, i64, i64, i64, i64, i32, i32, i64, i32, i32, i32, i32, i32, i32, i32, i32, ptr, i32, i64, i64, i64, i64, i32, ptr, i32, ptr, i32, i32, i32, i64, i64, i64, i64, i32, i32, i32, i32, i32, i32, ptr, i32, i32, ptr, i32, i32, i32, [2 x i32], i32, %struct.redisOpArray, i32, ptr, i32, ptr, i32, i32, i32, i32, i32, i32, i32, [41 x i8], [41 x i8], i64, i64, i64, i64, i32, i32, ptr, i64, i64, %struct.replDataBuf, i64, i64, i32, i32, i32, i32, i32, i32, i32, i32, i32, i64, ptr, i64, ptr, ptr, ptr, i32, i32, ptr, ptr, i32, i32, i32, i64, i64, i64, i64, ptr, ptr, i32, ptr, i64, i32, i32, i32, i64, i32, i32, i32, i32, ptr, i32, i32, [41 x i8], i64, i32, ptr, i32, i32, i64, i64, i32, i32, i32, i32, i32, i64, [3 x i32], i32, i32, i32, [10 x i32], ptr, ptr, i32, i64, ptr, ptr, i32, i32, i32, i32, i64, i64, i64, i64, i64, i64, i64, i64, i64, i64, i32, i32, i64, i64, i32, i64, i64, i64, i64, i64, ptr, ptr, i32, ptr, i32, i32, i32, i32, i64, i64, ptr, ptr, i32, i32, i32, i32, i32, ptr, ptr, ptr, i32, i32, i32, i32, i32, i32, i32, i64, i32, i32, i64, i32, i32, i32, i32, i32, i32, i32, i64, ptr, ptr, i64, ptr, i32, %struct.aclInfo, i32, i64, i32, i32, i32, %struct.redisTLSContextConfig, ptr, ptr, ptr, ptr, ptr, i64, i32, ptr, i32, i32, i32, i64, i32, ptr }
%struct.connListener = type { [16 x i32], i32, ptr, i32, i32, ptr, ptr }
%struct.pause_event = type { i32, i64 }
%struct.malloc_stats = type { i64, i64, i64, i64, i64, i64, i64, i64, i64, i64, i64 }
%struct.anon = type { i64, i64, [16 x i64], i32 }
%struct.durationStats = type { i64, i64, i64 }
%struct.clientBufferLimitsConfig = type { i64, i64, i64 }
%struct.redisOpArray = type { ptr, i32, i32 }
%struct.replDataBuf = type { ptr, i64, i64, i64, i64 }
%struct.aclInfo = type { i64, i64, i64, i64 }
%struct.redisTLSContextConfig = type { ptr, ptr, ptr, ptr, ptr, ptr, ptr, ptr, ptr, ptr, ptr, ptr, i32, i32, i32, i32 }
%struct.client = type { i64, i64, ptr, i8, i8, i8, i8, i32, ptr, ptr, ptr, ptr, ptr, i64, i64, i32, ptr, i32, i32, ptr, i64, ptr, ptr, ptr, ptr, ptr, i32, i32, i64, ptr, i64, ptr, i64, i64, i64, i32, ptr, i64, i64, i32, i32, i32, i32, i64, i64, ptr, i64, i64, i64, i64, i64, i64, i64, i64, [41 x i8], i32, ptr, i32, i32, i64, %struct.multiState, %struct.blockingState, i64, ptr, ptr, ptr, ptr, ptr, ptr, ptr, ptr, ptr, ptr, ptr, ptr, ptr, ptr, i64, ptr, i64, i32, ptr, ptr, ptr, i64, %struct.listNode, i64, i64, i32, i64, ptr }
%struct.multiState = type { ptr, i32, i32, i32, i64, i32 }
%struct.blockingState = type { i32, i64, i32, ptr, i32, i32, i64, ptr, ptr, i64 }
%struct.listNode = type { ptr, ptr, ptr }
%struct.redisDb = type { ptr, ptr, ptr, ptr, ptr, ptr, ptr, i32, i64, i64, ptr }

@shared = external global %struct.sharedObjectsStruct, align 8
@server = external global %struct.redisServer, align 8
@.str = private unnamed_addr constant [4 x i8] c"set\00", align 1

; Function Attrs: nounwind uwtable
define dso_local void @msetGenericCommand(ptr noundef %0, i32 noundef %1) #0 {
  %3 = alloca ptr, align 8
  %4 = alloca i32, align 4
  %5 = alloca i32, align 4
  %6 = alloca i32, align 4
  %7 = alloca i32, align 4
  store ptr %0, ptr %3, align 8, !tbaa !5
  store i32 %1, ptr %4, align 4, !tbaa !10
  call void @llvm.lifetime.start.p0(i64 4, ptr %5) #10
  %8 = load ptr, ptr %3, align 8, !tbaa !5
  %9 = getelementptr inbounds nuw %struct.client, ptr %8, i32 0, i32 15
  %10 = load i32, ptr %9, align 8, !tbaa !61
  %11 = srem i32 %10, 2
  %12 = icmp eq i32 %11, 0
  br i1 %12, label %13, label %15

13:                                               ; preds = %2
  %14 = load ptr, ptr %3, align 8, !tbaa !5
  call void @addReplyErrorArity(ptr noundef %14)
  store i32 1, ptr %6, align 4
  br label %130

15:                                               ; preds = %2
  %16 = load i32, ptr %4, align 4, !tbaa !10
  %17 = icmp ne i32 %16, 0
  br i1 %17, label %18, label %46

18:                                               ; preds = %15
  store i32 1, ptr %5, align 4, !tbaa !10
  br label %19

19:                                               ; preds = %42, %18
  %20 = load i32, ptr %5, align 4, !tbaa !10
  %21 = load ptr, ptr %3, align 8, !tbaa !5
  %22 = getelementptr inbounds nuw %struct.client, ptr %21, i32 0, i32 15
  %23 = load i32, ptr %22, align 8, !tbaa !61
  %24 = icmp slt i32 %20, %23
  br i1 %24, label %25, label %45

25:                                               ; preds = %19
  %26 = load ptr, ptr %3, align 8, !tbaa !5
  %27 = getelementptr inbounds nuw %struct.client, ptr %26, i32 0, i32 8
  %28 = load ptr, ptr %27, align 8, !tbaa !18
  %29 = load ptr, ptr %3, align 8, !tbaa !5
  %30 = getelementptr inbounds nuw %struct.client, ptr %29, i32 0, i32 16
  %31 = load ptr, ptr %30, align 8, !tbaa !63
  %32 = load i32, ptr %5, align 4, !tbaa !10
  %33 = sext i32 %32 to i64
  %34 = getelementptr inbounds ptr, ptr %31, i64 %33
  %35 = load ptr, ptr %34, align 8, !tbaa !12
  %36 = call ptr @lookupKeyWrite(ptr noundef %28, ptr noundef %35)
  %37 = icmp ne ptr %36, null
  br i1 %37, label %38, label %41

38:                                               ; preds = %25
  %39 = load ptr, ptr %3, align 8, !tbaa !5
  %40 = load ptr, ptr getelementptr inbounds nuw (%struct.sharedObjectsStruct, ptr @shared, i32 0, i32 3), align 8, !tbaa !77
  call void @addReply(ptr noundef %39, ptr noundef %40)
  store i32 1, ptr %6, align 4
  br label %130

41:                                               ; preds = %25
  br label %42

42:                                               ; preds = %41
  %43 = load i32, ptr %5, align 4, !tbaa !10
  %44 = add nsw i32 %43, 2
  store i32 %44, ptr %5, align 4, !tbaa !10
  br label %19, !llvm.loop !89

45:                                               ; preds = %19
  br label %46

46:                                               ; preds = %45, %15
  call void @llvm.lifetime.start.p0(i64 4, ptr %7) #10
  %47 = load i32, ptr %4, align 4, !tbaa !10
  %48 = icmp ne i32 %47, 0
  %49 = select i1 %48, i32 8, i32 0
  store i32 %49, ptr %7, align 4, !tbaa !10
  store i32 1, ptr %5, align 4, !tbaa !10
  br label %50

50:                                               ; preds = %109, %46
  %51 = load i32, ptr %5, align 4, !tbaa !10
  %52 = load ptr, ptr %3, align 8, !tbaa !5
  %53 = getelementptr inbounds nuw %struct.client, ptr %52, i32 0, i32 15
  %54 = load i32, ptr %53, align 8, !tbaa !61
  %55 = icmp slt i32 %51, %54
  br i1 %55, label %56, label %112

56:                                               ; preds = %50
  %57 = load ptr, ptr %3, align 8, !tbaa !5
  %58 = getelementptr inbounds nuw %struct.client, ptr %57, i32 0, i32 16
  %59 = load ptr, ptr %58, align 8, !tbaa !63
  %60 = load i32, ptr %5, align 4, !tbaa !10
  %61 = add nsw i32 %60, 1
  %62 = sext i32 %61 to i64
  %63 = getelementptr inbounds ptr, ptr %59, i64 %62
  %64 = load ptr, ptr %63, align 8, !tbaa !12
  %65 = call ptr @tryObjectEncoding(ptr noundef %64)
  %66 = load ptr, ptr %3, align 8, !tbaa !5
  %67 = getelementptr inbounds nuw %struct.client, ptr %66, i32 0, i32 16
  %68 = load ptr, ptr %67, align 8, !tbaa !63
  %69 = load i32, ptr %5, align 4, !tbaa !10
  %70 = add nsw i32 %69, 1
  %71 = sext i32 %70 to i64
  %72 = getelementptr inbounds ptr, ptr %68, i64 %71
  store ptr %65, ptr %72, align 8, !tbaa !12
  %73 = load ptr, ptr %3, align 8, !tbaa !5
  %74 = load ptr, ptr %3, align 8, !tbaa !5
  %75 = getelementptr inbounds nuw %struct.client, ptr %74, i32 0, i32 8
  %76 = load ptr, ptr %75, align 8, !tbaa !18
  %77 = load ptr, ptr %3, align 8, !tbaa !5
  %78 = getelementptr inbounds nuw %struct.client, ptr %77, i32 0, i32 16
  %79 = load ptr, ptr %78, align 8, !tbaa !63
  %80 = load i32, ptr %5, align 4, !tbaa !10
  %81 = sext i32 %80 to i64
  %82 = getelementptr inbounds ptr, ptr %79, i64 %81
  %83 = load ptr, ptr %82, align 8, !tbaa !12
  %84 = load ptr, ptr %3, align 8, !tbaa !5
  %85 = getelementptr inbounds nuw %struct.client, ptr %84, i32 0, i32 16
  %86 = load ptr, ptr %85, align 8, !tbaa !63
  %87 = load i32, ptr %5, align 4, !tbaa !10
  %88 = add nsw i32 %87, 1
  %89 = sext i32 %88 to i64
  %90 = getelementptr inbounds ptr, ptr %86, i64 %89
  %91 = load ptr, ptr %90, align 8, !tbaa !12
  %92 = load i32, ptr %7, align 4, !tbaa !10
  call void @setKey(ptr noundef %73, ptr noundef %76, ptr noundef %83, ptr noundef %91, i32 noundef %92)
  %93 = load ptr, ptr %3, align 8, !tbaa !5
  %94 = getelementptr inbounds nuw %struct.client, ptr %93, i32 0, i32 16
  %95 = load ptr, ptr %94, align 8, !tbaa !63
  %96 = load i32, ptr %5, align 4, !tbaa !10
  %97 = sext i32 %96 to i64
  %98 = getelementptr inbounds ptr, ptr %95, i64 %97
  %99 = load ptr, ptr %98, align 8, !tbaa !12
  %100 = load ptr, ptr %3, align 8, !tbaa !5
  %101 = getelementptr inbounds nuw %struct.client, ptr %100, i32 0, i32 8
  %102 = load ptr, ptr %101, align 8, !tbaa !18
  %103 = getelementptr inbounds nuw %struct.redisDb, ptr %102, i32 0, i32 7
  %104 = load i32, ptr %103, align 8, !tbaa !55
  call void @notifyKeyspaceEvent(i32 noundef 8, ptr noundef @.str, ptr noundef %99, i32 noundef %104)
  %105 = load i32, ptr %4, align 4, !tbaa !10
  %106 = icmp ne i32 %105, 0
  br i1 %106, label %107, label %108

107:                                              ; preds = %56
  store i32 16, ptr %7, align 4, !tbaa !10
  br label %108

108:                                              ; preds = %107, %56
  br label %109

109:                                              ; preds = %108
  %110 = load i32, ptr %5, align 4, !tbaa !10
  %111 = add nsw i32 %110, 2
  store i32 %111, ptr %5, align 4, !tbaa !10
  br label %50, !llvm.loop !90

112:                                              ; preds = %50
  %113 = load ptr, ptr %3, align 8, !tbaa !5
  %114 = getelementptr inbounds nuw %struct.client, ptr %113, i32 0, i32 15
  %115 = load i32, ptr %114, align 8, !tbaa !61
  %116 = sub nsw i32 %115, 1
  %117 = sdiv i32 %116, 2
  %118 = sext i32 %117 to i64
  %119 = load i64, ptr getelementptr inbounds nuw (%struct.redisServer, ptr @server, i32 0, i32 227), align 8, !tbaa !35
  %120 = add nsw i64 %119, %118
  store i64 %120, ptr getelementptr inbounds nuw (%struct.redisServer, ptr @server, i32 0, i32 227), align 8, !tbaa !35
  %121 = load ptr, ptr %3, align 8, !tbaa !5
  %122 = load i32, ptr %4, align 4, !tbaa !10
  %123 = icmp ne i32 %122, 0
  br i1 %123, label %124, label %126

124:                                              ; preds = %112
  %125 = load ptr, ptr getelementptr inbounds nuw (%struct.sharedObjectsStruct, ptr @shared, i32 0, i32 4), align 8, !tbaa !76
  br label %128

126:                                              ; preds = %112
  %127 = load ptr, ptr @shared, align 8, !tbaa !60
  br label %128

128:                                              ; preds = %126, %124
  %129 = phi ptr [ %125, %124 ], [ %127, %126 ]
  call void @addReply(ptr noundef %121, ptr noundef %129)
  call void @llvm.lifetime.end.p0(i64 4, ptr %7) #10
  store i32 0, ptr %6, align 4
  br label %130

130:                                              ; preds = %128, %38, %13
  call void @llvm.lifetime.end.p0(i64 4, ptr %5) #10
  %131 = load i32, ptr %6, align 4
  switch i32 %131, label %133 [
    i32 0, label %132
    i32 1, label %132
  ]

132:                                              ; preds = %130, %130
  ret void

133:                                              ; preds = %130
  unreachable
}