; Function Attrs: nounwind uwtable
define dso_local void @msetGenericCommand(ptr noundef %0, i32 noundef %1) local_unnamed_addr #0 {
  %3 = getelementptr inbounds nuw i8, ptr %0, i64 88
  %4 = load i32, ptr %3, align 8, !tbaa !59
  %5 = and i32 %4, 1
  %6 = icmp eq i32 %5, 0
  br i1 %6, label %7, label %8

7:                                                ; preds = %2
  tail call void @addReplyErrorArity(ptr noundef nonnull %0) #11
  br label %75

8:                                                ; preds = %2
  %.not = icmp eq i32 %1, 0
  %9 = icmp sgt i32 %4, 1
  br i1 %.not, label %.loopexit.thread49, label %.preheader

.preheader:                                       ; preds = %8
  br i1 %9, label %.lr.ph, label %._crit_edge

.lr.ph:                                           ; preds = %.preheader
  %10 = getelementptr inbounds nuw i8, ptr %0, i64 32
  %11 = getelementptr inbounds nuw i8, ptr %0, i64 96
  br label %16

12:                                               ; preds = %16
  %indvars.iv.next = add nuw nsw i64 %indvars.iv, 2
  %13 = load i32, ptr %3, align 8, !tbaa !59
  %14 = trunc nuw i64 %indvars.iv.next to i32
  %15 = icmp sgt i32 %13, %14
  br i1 %15, label %16, label %.loopexit, !llvm.loop !81

16:                                               ; preds = %.lr.ph, %12
  %indvars.iv = phi i64 [ 1, %.lr.ph ], [ %indvars.iv.next, %12 ]
  %17 = load ptr, ptr %10, align 8, !tbaa !32
  %18 = load ptr, ptr %11, align 8, !tbaa !9
  %19 = getelementptr inbounds nuw ptr, ptr %18, i64 %indvars.iv
  %20 = load ptr, ptr %19, align 8, !tbaa !29
  %21 = tail call ptr @lookupKeyWrite(ptr noundef %17, ptr noundef %20) #11
  %.not34 = icmp eq ptr %21, null
  br i1 %.not34, label %12, label %22

22:                                               ; preds = %16
  %23 = load ptr, ptr getelementptr inbounds nuw (i8, ptr @shared, i64 24), align 8, !tbaa !69
  tail call void @addReply(ptr noundef nonnull %0, ptr noundef %23) #11
  br label %75

.loopexit:                                        ; preds = %12
  %24 = icmp sgt i32 %13, 1
  br i1 %24, label %.lr.ph38, label %._crit_edge

.loopexit.thread49:                               ; preds = %8
  br i1 %9, label %.lr.ph38.thread, label %._crit_edge

.lr.ph38.thread:                                  ; preds = %.loopexit.thread49
  %25 = getelementptr inbounds nuw i8, ptr %0, i64 96
  %26 = getelementptr inbounds nuw i8, ptr %0, i64 32
  br label %.lr.ph38.split.us

.lr.ph38:                                         ; preds = %.loopexit
  %27 = getelementptr inbounds nuw i8, ptr %0, i64 96
  %28 = getelementptr inbounds nuw i8, ptr %0, i64 32
  br label %.lr.ph38.split

.lr.ph38.split.us:                                ; preds = %.lr.ph38.thread, %.lr.ph38.split.us
  %indvars.iv46 = phi i64 [ 1, %.lr.ph38.thread ], [ %indvars.iv.next47, %.lr.ph38.split.us ]
  %29 = load ptr, ptr %25, align 8, !tbaa !9
  %30 = add nuw nsw i64 %indvars.iv46, 1
  %31 = getelementptr inbounds nuw ptr, ptr %29, i64 %30
  %32 = load ptr, ptr %31, align 8, !tbaa !29
  %33 = tail call ptr @tryObjectEncoding(ptr noundef %32) #11
  %34 = load ptr, ptr %25, align 8, !tbaa !9
  %35 = getelementptr inbounds nuw ptr, ptr %34, i64 %30
  store ptr %33, ptr %35, align 8, !tbaa !29
  %36 = load ptr, ptr %26, align 8, !tbaa !32
  %37 = getelementptr inbounds nuw ptr, ptr %34, i64 %indvars.iv46
  %38 = load ptr, ptr %37, align 8, !tbaa !29
  tail call void @setKey(ptr noundef nonnull %0, ptr noundef %36, ptr noundef %38, ptr noundef %33, i32 noundef 0) #11
  %39 = load ptr, ptr %25, align 8, !tbaa !9
  %40 = getelementptr inbounds nuw ptr, ptr %39, i64 %indvars.iv46
  %41 = load ptr, ptr %40, align 8, !tbaa !29
  %42 = load ptr, ptr %26, align 8, !tbaa !32
  %43 = getelementptr inbounds nuw i8, ptr %42, i64 56
  %44 = load i32, ptr %43, align 8, !tbaa !54
  tail call void @notifyKeyspaceEvent(i32 noundef 8, ptr noundef nonnull @.str, ptr noundef %41, i32 noundef %44) #11
  %indvars.iv.next47 = add nuw nsw i64 %indvars.iv46, 2
  %45 = load i32, ptr %3, align 8, !tbaa !59
  %46 = trunc nuw i64 %indvars.iv.next47 to i32
  %47 = icmp sgt i32 %45, %46
  br i1 %47, label %.lr.ph38.split.us, label %._crit_edge, !llvm.loop !82

.lr.ph38.split:                                   ; preds = %.lr.ph38, %.lr.ph38.split
  %indvars.iv43 = phi i64 [ %indvars.iv.next44, %.lr.ph38.split ], [ 1, %.lr.ph38 ]
  %.037 = phi i32 [ 16, %.lr.ph38.split ], [ 8, %.lr.ph38 ]
  %48 = load ptr, ptr %27, align 8, !tbaa !9
  %49 = add nuw nsw i64 %indvars.iv43, 1
  %50 = getelementptr inbounds nuw ptr, ptr %48, i64 %49
  %51 = load ptr, ptr %50, align 8, !tbaa !29
  %52 = tail call ptr @tryObjectEncoding(ptr noundef %51) #11
  %53 = load ptr, ptr %27, align 8, !tbaa !9
  %54 = getelementptr inbounds nuw ptr, ptr %53, i64 %49
  store ptr %52, ptr %54, align 8, !tbaa !29
  %55 = load ptr, ptr %28, align 8, !tbaa !32
  %56 = getelementptr inbounds nuw ptr, ptr %53, i64 %indvars.iv43
  %57 = load ptr, ptr %56, align 8, !tbaa !29
  tail call void @setKey(ptr noundef nonnull %0, ptr noundef %55, ptr noundef %57, ptr noundef %52, i32 noundef %.037) #11
  %58 = load ptr, ptr %27, align 8, !tbaa !9
  %59 = getelementptr inbounds nuw ptr, ptr %58, i64 %indvars.iv43
  %60 = load ptr, ptr %59, align 8, !tbaa !29
  %61 = load ptr, ptr %28, align 8, !tbaa !32
  %62 = getelementptr inbounds nuw i8, ptr %61, i64 56
  %63 = load i32, ptr %62, align 8, !tbaa !54
  tail call void @notifyKeyspaceEvent(i32 noundef 8, ptr noundef nonnull @.str, ptr noundef %60, i32 noundef %63) #11
  %indvars.iv.next44 = add nuw nsw i64 %indvars.iv43, 2
  %64 = load i32, ptr %3, align 8, !tbaa !59
  %65 = trunc nuw i64 %indvars.iv.next44 to i32
  %66 = icmp sgt i32 %64, %65
  br i1 %66, label %.lr.ph38.split, label %._crit_edge, !llvm.loop !82

._crit_edge:                                      ; preds = %.lr.ph38.split, %.lr.ph38.split.us, %.preheader, %.loopexit.thread49, %.loopexit
  %.lcssa = phi i32 [ %13, %.loopexit ], [ %4, %.loopexit.thread49 ], [ %4, %.preheader ], [ %45, %.lr.ph38.split.us ], [ %64, %.lr.ph38.split ]
  %67 = add nsw i32 %.lcssa, -1
  %68 = sdiv i32 %67, 2
  %69 = sext i32 %68 to i64
  %70 = load i64, ptr getelementptr inbounds nuw (i8, ptr @server, i64 6720), align 8, !tbaa !33
  %71 = add nsw i64 %70, %69
  store i64 %71, ptr getelementptr inbounds nuw (i8, ptr @server, i64 6720), align 8, !tbaa !33
  %72 = load ptr, ptr getelementptr inbounds nuw (i8, ptr @shared, i64 32), align 8
  %73 = load ptr, ptr @shared, align 8
  %74 = select i1 %.not, ptr %73, ptr %72
  tail call void @addReply(ptr noundef nonnull %0, ptr noundef %74) #11
  br label %75

75:                                               ; preds = %._crit_edge, %22, %7
  ret void
}